; Function Attrs: mustprogress nofree norecurse nosync nounwind willreturn memory(read, inaccessiblemem: none) uwtable
define hidden i64 @_ZNK17CirclesGridFinder19getDetectedGridSizeEv(ptr nocapture noundef nonnull readonly align 8 dereferenceable(173) %0) local_unnamed_addr #10 align 2 {
  %2 = getelementptr inbounds i8, ptr %0, i64 24
  %3 = getelementptr inbounds i8, ptr %0, i64 32
  %4 = load ptr, ptr %3, align 8
  %5 = load ptr, ptr %2, align 8
  %6 = icmp eq ptr %4, %5
  br i1 %6, label %22, label %7

7:                                                ; preds = %1
  %8 = ptrtoint ptr %4 to i64
  %9 = ptrtoint ptr %5 to i64
  %10 = sub i64 %8, %9
  %11 = sdiv exact i64 %10, 24
  %12 = getelementptr inbounds i8, ptr %5, i64 8
  %13 = load ptr, ptr %12, align 8
  %14 = load ptr, ptr %5, align 8
  %15 = ptrtoint ptr %13 to i64
  %16 = ptrtoint ptr %14 to i64
  %17 = sub i64 %15, %16
  %18 = lshr exact i64 %17, 3
  %19 = shl i64 %11, 32
  %20 = and i64 %18, 4294967295
  %21 = or disjoint i64 %20, %19
  br label %22

22:                                               ; preds = %1, %7
  %.sroa.0.0.insert.insert = phi i64 [ %21, %7 ], [ 0, %1 ]
  ret i64 %.sroa.0.0.insert.insert
}